; Function Attrs: mustprogress nounwind uwtable
define void @_ZN6duckdb22DictionaryAnalyzeState5FlushEb(ptr noundef nonnull align 8 captures(none) dereferenceable(178) initializes((24, 48)) %0, i1 zeroext %1) unnamed_addr #10 align 2 personality ptr @__gxx_personality_v0 {
  %3 = getelementptr inbounds nuw i8, ptr %0, i64 16
  %4 = load i64, ptr %3, align 8, !tbaa !136
  %5 = add i64 %4, 1
  store i64 %5, ptr %3, align 8, !tbaa !136
  %6 = getelementptr inbounds nuw i8, ptr %0, i64 24
  %7 = getelementptr inbounds nuw i8, ptr %0, i64 136
  tail call void @llvm.memset.p0.i64(ptr noundef nonnull align 8 dereferenceable(24) %6, i8 0, i64 24, i1 false)
  %8 = load ptr, ptr %7, align 8, !tbaa !137
  %.not5.i.i.i = icmp eq ptr %8, null
  br i1 %.not5.i.i.i, label %_ZNSt13unordered_setIN6duckdb8string_tENS0_10StringHashENS0_14StringEqualityESaIS1_EE5clearEv.exit, label %.lr.ph.i.i.i

.lr.ph.i.i.i:                                     ; preds = %2, %.lr.ph.i.i.i
  %.06.i.i.i = phi ptr [ %9, %.lr.ph.i.i.i ], [ %8, %2 ]
  %9 = load ptr, ptr %.06.i.i.i, align 8, !tbaa !138
  tail call void @_ZdlPv(ptr noundef nonnull %.06.i.i.i) #30
  %.not.i.i.i = icmp eq ptr %9, null
  br i1 %.not.i.i.i, label %_ZNSt13unordered_setIN6duckdb8string_tENS0_10StringHashENS0_14StringEqualityESaIS1_EE5clearEv.exit, label %.lr.ph.i.i.i, !llvm.loop !139

_ZNSt13unordered_setIN6duckdb8string_tENS0_10StringHashENS0_14StringEqualityESaIS1_EE5clearEv.exit: ; preds = %.lr.ph.i.i.i, %2
  %10 = getelementptr inbounds nuw i8, ptr %0, i64 120
  %11 = load ptr, ptr %10, align 8, !tbaa !97
  %12 = getelementptr inbounds nuw i8, ptr %0, i64 128
  %13 = load i64, ptr %12, align 8, !tbaa !104
  %14 = shl i64 %13, 3
  tail call void @llvm.memset.p0.i64(ptr align 8 %11, i8 0, i64 %14, i1 false)
  tail call void @llvm.memset.p0.i64(ptr noundef nonnull align 8 dereferenceable(16) %7, i8 0, i64 16, i1 false)
  ret void
}